; Function Attrs: mustprogress nounwind uwtable
define internal fastcc noundef zeroext i1 @_ZN12_GLOBAL__N_117AArch64AsmPrinter17printAsmMRegisterERKN4llvm14MachineOperandEcRNS1_11raw_ostreamE(i32 %.4.val, i8 noundef signext %0, ptr noundef nonnull align 8 dereferenceable(48) %1) unnamed_addr #0 align 2 {
  switch i8 %0, label %_ZN4llvm11raw_ostreamlsEPKc.exit [
    i8 119, label %3
    i8 120, label %5
    i8 116, label %7
  ]

3:                                                ; preds = %2
  %4 = tail call fastcc noundef i32 @_ZN4llvmL15getWRegFromXRegEj(i32 noundef %.4.val)
  br label %_ZN4llvmL20getXRegFromXRegTupleEj.exit

5:                                                ; preds = %2
  %6 = tail call fastcc noundef i32 @_ZN4llvmL15getXRegFromWRegEj(i32 noundef %.4.val)
  br label %_ZN4llvmL20getXRegFromXRegTupleEj.exit

7:                                                ; preds = %2
  %switch.tableidx = add i32 %.4.val, -538
  %8 = icmp ult i32 %switch.tableidx, 12
  br i1 %8, label %switch.lookup, label %_ZN4llvmL20getXRegFromXRegTupleEj.exit

switch.lookup:                                    ; preds = %7
  %9 = zext nneg i32 %switch.tableidx to i64
  %switch.gep = getelementptr inbounds [12 x i32], ptr @switch.table._ZN12_GLOBAL__N_117AArch64AsmPrinter17printAsmMRegisterERKN4llvm14MachineOperandEcRNS1_11raw_ostreamE, i64 0, i64 %9
  %switch.load = load i32, ptr %switch.gep, align 4
  br label %_ZN4llvmL20getXRegFromXRegTupleEj.exit

_ZN4llvmL20getXRegFromXRegTupleEj.exit:           ; preds = %7, %switch.lookup, %5, %3
  %.sroa.03.0 = phi i32 [ %6, %5 ], [ %4, %3 ], [ %switch.load, %switch.lookup ], [ %.4.val, %7 ]
  %10 = tail call noundef ptr @_ZN4llvm18AArch64InstPrinter15getRegisterNameENS_10MCRegisterEj(i32 %.sroa.03.0, i32 noundef 0) #21
  %.not.i.i = icmp eq ptr %10, null
  br i1 %.not.i.i, label %_ZN4llvm11raw_ostreamlsEPKc.exit, label %_ZN4llvm9StringRefC2EPKc.exit.i

_ZN4llvm9StringRefC2EPKc.exit.i:                  ; preds = %_ZN4llvmL20getXRegFromXRegTupleEj.exit
  %11 = tail call noundef i64 @strlen(ptr noundef nonnull dereferenceable(1) %10) #21
  %12 = getelementptr inbounds nuw i8, ptr %1, i64 24
  %13 = load ptr, ptr %12, align 8
  %14 = getelementptr inbounds nuw i8, ptr %1, i64 32
  %15 = load ptr, ptr %14, align 8
  %16 = ptrtoint ptr %13 to i64
  %17 = ptrtoint ptr %15 to i64
  %18 = sub i64 %16, %17
  %19 = icmp ugt i64 %11, %18
  br i1 %19, label %20, label %22

20:                                               ; preds = %_ZN4llvm9StringRefC2EPKc.exit.i
  %21 = tail call noundef nonnull align 8 dereferenceable(48) ptr @_ZN4llvm11raw_ostream5writeEPKcm(ptr noundef nonnull align 8 dereferenceable(48) %1, ptr noundef nonnull %10, i64 noundef %11) #21
  br label %_ZN4llvm11raw_ostreamlsEPKc.exit

22:                                               ; preds = %_ZN4llvm9StringRefC2EPKc.exit.i
  %.not.i2.i = icmp eq i64 %11, 0
  br i1 %.not.i2.i, label %_ZN4llvm11raw_ostreamlsEPKc.exit, label %23

23:                                               ; preds = %22
  tail call void @llvm.memcpy.p0.p0.i64(ptr align 1 %15, ptr nonnull align 1 %10, i64 %11, i1 false)
  %24 = load ptr, ptr %14, align 8
  %25 = getelementptr inbounds i8, ptr %24, i64 %11
  store ptr %25, ptr %14, align 8
  br label %_ZN4llvm11raw_ostreamlsEPKc.exit

_ZN4llvm11raw_ostreamlsEPKc.exit:                 ; preds = %23, %22, %20, %_ZN4llvmL20getXRegFromXRegTupleEj.exit, %2
  %.0 = phi i1 [ true, %2 ], [ false, %_ZN4llvmL20getXRegFromXRegTupleEj.exit ], [ false, %20 ], [ false, %22 ], [ false, %23 ]
  ret i1 %.0
}